target datalayout = "e-m:e-p270:32:32-p271:32:32-p272:64:64-i64:64-i128:128-f80:128-n8:16:32:64-S128"
target triple = "x86_64-pc-linux-gnu"

%struct._zend_posix_globals = type { i32 }
%struct._zval_struct = type { %union._zend_value, %union.anon, %union.anon.2 }
%union._zend_value = type { i64 }
%union.anon = type { i32 }
%union.anon.2 = type { i32 }
%struct._zend_execute_data = type { ptr, ptr, ptr, ptr, %struct._zval_struct, ptr, ptr, ptr, ptr }
%struct.utsname = type { [65 x i8], [65 x i8], [65 x i8], [65 x i8], [65 x i8], [65 x i8] }

@posix_globals = hidden global %struct._zend_posix_globals zeroinitializer, align 4
@.str.3 = private unnamed_addr constant [8 x i8] c"sysname\00", align 1
@.str.4 = private unnamed_addr constant [9 x i8] c"nodename\00", align 1
@.str.5 = private unnamed_addr constant [8 x i8] c"release\00", align 1
@.str.6 = private unnamed_addr constant [8 x i8] c"version\00", align 1
@.str.7 = private unnamed_addr constant [8 x i8] c"machine\00", align 1
@.str.8 = private unnamed_addr constant [11 x i8] c"domainname\00", align 1

; Function Attrs: nounwind uwtable
define hidden void @zif_posix_uname(ptr noundef %0, ptr noundef %1) #0 {
  %3 = alloca ptr, align 8
  %4 = alloca ptr, align 8
  %5 = alloca ptr, align 8
  %6 = alloca ptr, align 8
  %7 = alloca ptr, align 8
  %8 = alloca ptr, align 8
  %9 = alloca ptr, align 8
  %10 = alloca ptr, align 8
  %11 = alloca ptr, align 8
  %12 = alloca ptr, align 8
  %13 = alloca ptr, align 8
  %14 = alloca ptr, align 8
  %15 = alloca ptr, align 8
  %16 = alloca ptr, align 8
  %17 = alloca ptr, align 8
  %18 = alloca ptr, align 8
  %19 = alloca ptr, align 8
  %20 = alloca ptr, align 8
  %21 = alloca ptr, align 8
  %22 = alloca ptr, align 8
  %23 = alloca %struct.utsname, align 1
  %24 = alloca ptr, align 8
  %25 = alloca ptr, align 8
  store ptr %0, ptr %21, align 8
  store ptr %1, ptr %22, align 8
  br label %26

26:                                               ; preds = %2
  %27 = load ptr, ptr %21, align 8
  %28 = getelementptr inbounds %struct._zend_execute_data, ptr %27, i32 0, i32 4
  %29 = getelementptr inbounds %struct._zval_struct, ptr %28, i32 0, i32 2
  %30 = load i32, ptr %29, align 4
  %31 = icmp ne i32 %30, 0
  %32 = xor i1 %31, true
  %33 = xor i1 %32, true
  %34 = zext i1 %33 to i32
  %35 = sext i32 %34 to i64
  %36 = icmp ne i64 %35, 0
  br i1 %36, label %37, label %38

37:                                               ; preds = %26
  call void @zend_wrong_parameters_none_error()
  br label %109

38:                                               ; preds = %26
  br label %39

39:                                               ; preds = %38
  %40 = call i32 @uname(ptr noundef %23) #9
  %41 = icmp slt i32 %40, 0
  br i1 %41, label %42, label %51

42:                                               ; preds = %39
  %43 = call ptr @__errno_location() #10
  %44 = load i32, ptr %43, align 4
  store i32 %44, ptr @posix_globals, align 4
  br label %45

45:                                               ; preds = %42
  br label %46

46:                                               ; preds = %45
  %47 = load ptr, ptr %22, align 8
  %48 = getelementptr inbounds %struct._zval_struct, ptr %47, i32 0, i32 1
  store i32 2, ptr %48, align 8
  br label %49

49:                                               ; preds = %46
  br label %109

50:                                               ; No predecessors!
  br label %51

51:                                               ; preds = %50, %39
  br label %52

52:                                               ; preds = %51
  %53 = call ptr @_zend_new_array_0()
  store ptr %53, ptr %24, align 8
  %54 = load ptr, ptr %22, align 8
  store ptr %54, ptr %25, align 8
  %55 = load ptr, ptr %24, align 8
  %56 = load ptr, ptr %25, align 8
  %57 = getelementptr inbounds %struct._zval_struct, ptr %56, i32 0, i32 0
  store ptr %55, ptr %57, align 8
  %58 = load ptr, ptr %25, align 8
  %59 = getelementptr inbounds %struct._zval_struct, ptr %58, i32 0, i32 1
  store i32 775, ptr %59, align 8
  br label %60

60:                                               ; preds = %52
  %61 = load ptr, ptr %22, align 8
  %62 = getelementptr inbounds %struct.utsname, ptr %23, i32 0, i32 0
  %63 = getelementptr inbounds [65 x i8], ptr %62, i64 0, i64 0
  store ptr %61, ptr %3, align 8
  store ptr @.str.3, ptr %4, align 8
  store ptr %63, ptr %5, align 8
  %64 = load ptr, ptr %3, align 8
  %65 = load ptr, ptr %4, align 8
  %66 = load ptr, ptr %4, align 8
  %67 = call i64 @strlen(ptr noundef %66) #12
  %68 = load ptr, ptr %5, align 8
  call void @add_assoc_string_ex(ptr noundef %64, ptr noundef %65, i64 noundef %67, ptr noundef %68) #9
  %69 = load ptr, ptr %22, align 8
  %70 = getelementptr inbounds %struct.utsname, ptr %23, i32 0, i32 1
  %71 = getelementptr inbounds [65 x i8], ptr %70, i64 0, i64 0
  store ptr %69, ptr %6, align 8
  store ptr @.str.4, ptr %7, align 8
  store ptr %71, ptr %8, align 8
  %72 = load ptr, ptr %6, align 8
  %73 = load ptr, ptr %7, align 8
  %74 = load ptr, ptr %7, align 8
  %75 = call i64 @strlen(ptr noundef %74) #12
  %76 = load ptr, ptr %8, align 8
  call void @add_assoc_string_ex(ptr noundef %72, ptr noundef %73, i64 noundef %75, ptr noundef %76) #9
  %77 = load ptr, ptr %22, align 8
  %78 = getelementptr inbounds %struct.utsname, ptr %23, i32 0, i32 2
  %79 = getelementptr inbounds [65 x i8], ptr %78, i64 0, i64 0
  store ptr %77, ptr %9, align 8
  store ptr @.str.5, ptr %10, align 8
  store ptr %79, ptr %11, align 8
  %80 = load ptr, ptr %9, align 8
  %81 = load ptr, ptr %10, align 8
  %82 = load ptr, ptr %10, align 8
  %83 = call i64 @strlen(ptr noundef %82) #12
  %84 = load ptr, ptr %11, align 8
  call void @add_assoc_string_ex(ptr noundef %80, ptr noundef %81, i64 noundef %83, ptr noundef %84) #9
  %85 = load ptr, ptr %22, align 8
  %86 = getelementptr inbounds %struct.utsname, ptr %23, i32 0, i32 3
  %87 = getelementptr inbounds [65 x i8], ptr %86, i64 0, i64 0
  store ptr %85, ptr %12, align 8
  store ptr @.str.6, ptr %13, align 8
  store ptr %87, ptr %14, align 8
  %88 = load ptr, ptr %12, align 8
  %89 = load ptr, ptr %13, align 8
  %90 = load ptr, ptr %13, align 8
  %91 = call i64 @strlen(ptr noundef %90) #12
  %92 = load ptr, ptr %14, align 8
  call void @add_assoc_string_ex(ptr noundef %88, ptr noundef %89, i64 noundef %91, ptr noundef %92) #9
  %93 = load ptr, ptr %22, align 8
  %94 = getelementptr inbounds %struct.utsname, ptr %23, i32 0, i32 4
  %95 = getelementptr inbounds [65 x i8], ptr %94, i64 0, i64 0
  store ptr %93, ptr %15, align 8
  store ptr @.str.7, ptr %16, align 8
  store ptr %95, ptr %17, align 8
  %96 = load ptr, ptr %15, align 8
  %97 = load ptr, ptr %16, align 8
  %98 = load ptr, ptr %16, align 8
  %99 = call i64 @strlen(ptr noundef %98) #12
  %100 = load ptr, ptr %17, align 8
  call void @add_assoc_string_ex(ptr noundef %96, ptr noundef %97, i64 noundef %99, ptr noundef %100) #9
  %101 = load ptr, ptr %22, align 8
  %102 = getelementptr inbounds %struct.utsname, ptr %23, i32 0, i32 5
  %103 = getelementptr inbounds [65 x i8], ptr %102, i64 0, i64 0
  store ptr %101, ptr %18, align 8
  store ptr @.str.8, ptr %19, align 8
  store ptr %103, ptr %20, align 8
  %104 = load ptr, ptr %18, align 8
  %105 = load ptr, ptr %19, align 8
  %106 = load ptr, ptr %19, align 8
  %107 = call i64 @strlen(ptr noundef %106) #12
  %108 = load ptr, ptr %20, align 8
  call void @add_assoc_string_ex(ptr noundef %104, ptr noundef %105, i64 noundef %107, ptr noundef %108) #9
  br label %109

109:                                              ; preds = %60, %49, %37
  ret void
}