; Function Attrs: nounwind uwtable
define hidden void @zif_posix_uname(ptr nocapture noundef readonly %0, ptr noundef %1) #0 {
  %3 = alloca %struct.utsname, align 1
  %4 = getelementptr inbounds i8, ptr %0, i64 44
  %5 = load i32, ptr %4, align 4
  %.not = icmp eq i32 %5, 0
  br i1 %.not, label %7, label %6

6:                                                ; preds = %2
  tail call void @zend_wrong_parameters_none_error() #11
  br label %22

7:                                                ; preds = %2
  %8 = call i32 @uname(ptr noundef nonnull %3) #11
  %9 = icmp slt i32 %8, 0
  br i1 %9, label %10, label %14

10:                                               ; preds = %7
  %11 = tail call ptr @__errno_location() #12
  %12 = load i32, ptr %11, align 4
  store i32 %12, ptr @posix_globals, align 4
  %13 = getelementptr inbounds i8, ptr %1, i64 8
  store i32 2, ptr %13, align 8
  br label %22

14:                                               ; preds = %7
  %15 = tail call ptr @_zend_new_array_0() #11
  store ptr %15, ptr %1, align 8
  %16 = getelementptr inbounds i8, ptr %1, i64 8
  store i32 775, ptr %16, align 8
  call void @add_assoc_string_ex(ptr noundef nonnull %1, ptr noundef nonnull @.str.3, i64 noundef 7, ptr noundef nonnull %3) #11
  %17 = getelementptr inbounds i8, ptr %3, i64 65
  call void @add_assoc_string_ex(ptr noundef nonnull %1, ptr noundef nonnull @.str.4, i64 noundef 8, ptr noundef nonnull %17) #11
  %18 = getelementptr inbounds i8, ptr %3, i64 130
  call void @add_assoc_string_ex(ptr noundef nonnull %1, ptr noundef nonnull @.str.5, i64 noundef 7, ptr noundef nonnull %18) #11
  %19 = getelementptr inbounds i8, ptr %3, i64 195
  call void @add_assoc_string_ex(ptr noundef nonnull %1, ptr noundef nonnull @.str.6, i64 noundef 7, ptr noundef nonnull %19) #11
  %20 = getelementptr inbounds i8, ptr %3, i64 260
  call void @add_assoc_string_ex(ptr noundef nonnull %1, ptr noundef nonnull @.str.7, i64 noundef 7, ptr noundef nonnull %20) #11
  %21 = getelementptr inbounds i8, ptr %3, i64 325
  call void @add_assoc_string_ex(ptr noundef nonnull %1, ptr noundef nonnull @.str.8, i64 noundef 10, ptr noundef nonnull %21) #11
  br label %22

22:                                               ; preds = %14, %10, %6
  ret void
}